; Function Attrs: mustprogress uwtable
define internal fastcc void @_ZN12_GLOBAL__N_125relative_path_to_versionsEN5vcpkg10StringViewE(ptr dead_on_unwind noalias writable align 8 %0, ptr %1, i64 %2) unnamed_addr #2 personality ptr @__gxx_personality_v0 {
  %4 = alloca %"struct.vcpkg::StringView", align 8
  %5 = alloca [3 x i8], align 1
  %6 = alloca %"struct.vcpkg::Path", align 8
  %7 = alloca %"struct.vcpkg::Path", align 8
  %8 = alloca %"struct.vcpkg::StringView", align 8
  %9 = alloca %"class.std::__cxx11::basic_string", align 8
  store ptr %1, ptr %4, align 8
  %10 = getelementptr inbounds i8, ptr %4, i64 8
  store i64 %2, ptr %10, align 8
  %11 = load i8, ptr %1, align 1
  store i8 %11, ptr %5, align 1
  %12 = getelementptr inbounds i8, ptr %5, i64 1
  store i8 45, ptr %12, align 1
  %13 = getelementptr inbounds i8, ptr %5, i64 2
  store i8 0, ptr %13, align 1
  call void @_ZN5vcpkg4PathC1EPKc(ptr noundef nonnull align 8 dereferenceable(32) %7, ptr noundef nonnull %5)
  invoke void @_ZNK5vcpkg10StringView9to_stringB5cxx11Ev(ptr dead_on_unwind nonnull writable sret(%"class.std::__cxx11::basic_string") align 8 %9, ptr noundef nonnull align 8 dereferenceable(16) %4)
          to label %14 unwind label %20

14:                                               ; preds = %3
  call void @_ZN5vcpkg10StringViewC1ERKNSt7__cxx1112basic_stringIcSt11char_traitsIcESaIcEEE(ptr noundef nonnull align 8 dereferenceable(16) %8, ptr noundef nonnull align 8 dereferenceable(32) %9) #26
  %15 = load ptr, ptr %8, align 8
  %16 = getelementptr inbounds i8, ptr %8, i64 8
  %17 = load i64, ptr %16, align 8
  invoke void @_ZNO5vcpkg4PathdvENS_10StringViewE(ptr dead_on_unwind nonnull writable sret(%"struct.vcpkg::Path") align 8 %6, ptr noundef nonnull align 8 dereferenceable(32) %7, ptr %15, i64 %17)
          to label %18 unwind label %22

18:                                               ; preds = %14
  invoke void @_ZNO5vcpkg4PathplENS_10StringViewE(ptr dead_on_unwind writable sret(%"struct.vcpkg::Path") align 8 %0, ptr noundef nonnull align 8 dereferenceable(32) %6, ptr nonnull @.str.9, i64 5)
          to label %19 unwind label %24

19:                                               ; preds = %18
  call void @_ZNSt7__cxx1112basic_stringIcSt11char_traitsIcESaIcEED1Ev(ptr noundef nonnull align 8 dereferenceable(32) %6) #26
  call void @_ZNSt7__cxx1112basic_stringIcSt11char_traitsIcESaIcEED1Ev(ptr noundef nonnull align 8 dereferenceable(32) %9) #26
  call void @_ZNSt7__cxx1112basic_stringIcSt11char_traitsIcESaIcEED1Ev(ptr noundef nonnull align 8 dereferenceable(32) %7) #26
  ret void

20:                                               ; preds = %3
  %21 = landingpad { ptr, i32 }
          cleanup
  br label %27

22:                                               ; preds = %14
  %23 = landingpad { ptr, i32 }
          cleanup
  br label %26

24:                                               ; preds = %18
  %25 = landingpad { ptr, i32 }
          cleanup
  call void @_ZNSt7__cxx1112basic_stringIcSt11char_traitsIcESaIcEED1Ev(ptr noundef nonnull align 8 dereferenceable(32) %6) #26
  br label %26

26:                                               ; preds = %24, %22
  %.pn = phi { ptr, i32 } [ %25, %24 ], [ %23, %22 ]
  call void @_ZNSt7__cxx1112basic_stringIcSt11char_traitsIcESaIcEED1Ev(ptr noundef nonnull align 8 dereferenceable(32) %9) #26
  br label %27

27:                                               ; preds = %26, %20
  %.pn.pn = phi { ptr, i32 } [ %.pn, %26 ], [ %21, %20 ]
  call void @_ZNSt7__cxx1112basic_stringIcSt11char_traitsIcESaIcEED1Ev(ptr noundef nonnull align 8 dereferenceable(32) %7) #26
  resume { ptr, i32 } %.pn.pn
}